; Function Attrs: mustprogress nofree norecurse nosync nounwind willreturn memory(read, inaccessiblemem: none) uwtable
define hidden noundef zeroext i1 @_ZNK7Imf_3_411TileOffsets20anyOffsetsAreInvalidEv(ptr noundef nonnull readonly align 8 captures(none) dereferenceable(40) %0) local_unnamed_addr #7 align 2 {
  %2 = getelementptr inbounds nuw i8, ptr %0, i64 16
  %3 = getelementptr inbounds nuw i8, ptr %0, i64 24
  %4 = load ptr, ptr %3, align 8, !tbaa !17
  %5 = load ptr, ptr %2, align 8, !tbaa !18
  %6 = ptrtoint ptr %4 to i64
  %7 = ptrtoint ptr %5 to i64
  %8 = sub i64 %6, %7
  %9 = sdiv exact i64 %8, 24
  %.not3039.not = icmp eq ptr %4, %5
  br i1 %.not3039.not, label %.loopexit, label %.preheader31

.preheader31:                                     ; preds = %1, %._crit_edge38
  %10 = phi i64 [ %39, %._crit_edge38 ], [ 0, %1 ]
  %.01940 = phi i32 [ %38, %._crit_edge38 ], [ 0, %1 ]
  %11 = getelementptr inbounds nuw %"class.std::vector.0", ptr %5, i64 %10
  %12 = getelementptr inbounds nuw i8, ptr %11, i64 8
  %13 = load ptr, ptr %12, align 8, !tbaa !20
  %14 = load ptr, ptr %11, align 8, !tbaa !23
  %15 = ptrtoint ptr %13 to i64
  %16 = ptrtoint ptr %14 to i64
  %17 = sub i64 %15, %16
  %18 = sdiv exact i64 %17, 24
  %.not42 = icmp eq ptr %13, %14
  br i1 %.not42, label %._crit_edge38, label %.preheader

.preheader:                                       ; preds = %.preheader31, %._crit_edge
  %19 = phi i64 [ %36, %._crit_edge ], [ 0, %.preheader31 ]
  %.01737 = phi i32 [ %35, %._crit_edge ], [ 0, %.preheader31 ]
  %20 = getelementptr inbounds nuw %"class.std::vector.5", ptr %14, i64 %19
  %21 = getelementptr inbounds nuw i8, ptr %20, i64 8
  %22 = load ptr, ptr %21, align 8, !tbaa !31
  %23 = load ptr, ptr %20, align 8, !tbaa !24
  %24 = ptrtoint ptr %22 to i64
  %25 = ptrtoint ptr %23 to i64
  %26 = sub i64 %24, %25
  %27 = ashr exact i64 %26, 3
  %.not35.not = icmp eq ptr %22, %23
  br i1 %.not35.not, label %._crit_edge, label %.lr.ph

28:                                               ; preds = %.lr.ph
  %29 = add i32 %.036, 1
  %30 = zext i32 %29 to i64
  %.not = icmp ugt i64 %27, %30
  br i1 %.not, label %.lr.ph, label %._crit_edge, !llvm.loop !48

.lr.ph:                                           ; preds = %.preheader, %28
  %31 = phi i64 [ %30, %28 ], [ 0, %.preheader ]
  %.036 = phi i32 [ %29, %28 ], [ 0, %.preheader ]
  %32 = getelementptr inbounds nuw i64, ptr %23, i64 %31
  %33 = load i64, ptr %32, align 8, !tbaa !32
  %34 = icmp eq i64 %33, 0
  br i1 %34, label %.loopexit, label %28

._crit_edge:                                      ; preds = %28, %.preheader
  %35 = add i32 %.01737, 1
  %36 = zext i32 %35 to i64
  %37 = icmp ugt i64 %18, %36
  br i1 %37, label %.preheader, label %._crit_edge38, !llvm.loop !49

._crit_edge38:                                    ; preds = %._crit_edge, %.preheader31
  %38 = add i32 %.01940, 1
  %39 = zext i32 %38 to i64
  %.not30 = icmp ugt i64 %9, %39
  br i1 %.not30, label %.preheader31, label %.loopexit, !llvm.loop !50

.loopexit:                                        ; preds = %._crit_edge38, %.lr.ph, %1
  %.not3034 = phi i1 [ false, %1 ], [ true, %.lr.ph ], [ false, %._crit_edge38 ]
  ret i1 %.not3034
}